target datalayout = "e-m:e-p270:32:32-p271:32:32-p272:64:64-i64:64-i128:128-f80:128-n8:16:32:64-S128"
target triple = "x86_64-unknown-linux-gnu"

%"struct.node::quic::Endpoint::SocketAddressInfoTraits::Type" = type { i64, i64, i64, i64, i8 }

; Function Attrs: mustprogress nounwind uwtable
define dso_local noundef zeroext i1 @_ZN4node4quic8Endpoint23SocketAddressInfoTraits12CheckExpiredERKNS_13SocketAddressERKNS2_4TypeE(ptr noundef nonnull align 8 dereferenceable(136) %address, ptr noundef nonnull align 8 dereferenceable(40) %type) #4 align 2 {
entry:
  %address.addr = alloca ptr, align 8
  %type.addr = alloca ptr, align 8
  store ptr %address, ptr %address.addr, align 8
  store ptr %type, ptr %type.addr, align 8
  %call = call i64 @uv_hrtime()
  %0 = load ptr, ptr %type.addr, align 8
  %timestamp = getelementptr inbounds %"struct.node::quic::Endpoint::SocketAddressInfoTraits::Type", ptr %0, i32 0, i32 3
  %1 = load i64, ptr %timestamp, align 8
  %sub = sub i64 %call, %1
  %cmp = icmp ugt i64 %sub, 60000000000
  ret i1 %cmp
}