; Function Attrs: mustprogress nounwind uwtable
define dso_local noundef zeroext i1 @_ZN4node4quic8Endpoint23SocketAddressInfoTraits12CheckExpiredERKNS_13SocketAddressERKNS2_4TypeE(ptr nocapture noundef nonnull readnone align 8 dereferenceable(136) %address, ptr nocapture noundef nonnull readonly align 8 dereferenceable(40) %type) local_unnamed_addr #3 align 2 {
entry:
  %call = tail call i64 @uv_hrtime() #21
  %timestamp = getelementptr inbounds i8, ptr %type, i64 24
  %0 = load i64, ptr %timestamp, align 8
  %sub = sub i64 %call, %0
  %cmp = icmp ugt i64 %sub, 60000000000
  ret i1 %cmp
}